target datalayout = "e-m:e-p270:32:32-p271:32:32-p272:64:64-i64:64-i128:128-f80:128-n8:16:32:64-S128"
target triple = "x86_64-pc-linux-gnu"

%"struct.open_spiel::phantom_go::PhantomGoBoard::Chain" = type { i32, i16, i16, i16 }

; Function Attrs: mustprogress nounwind uwtable
define void @_ZN10open_spiel10phantom_go14PhantomGoBoard5Chain11add_libertyEt(ptr noundef nonnull align 4 dereferenceable(12) %0, i16 noundef zeroext %1) #4 align 2 {
  %3 = alloca ptr, align 8
  %4 = alloca i16, align 2
  store ptr %0, ptr %3, align 8
  store i16 %1, ptr %4, align 2
  %5 = load ptr, ptr %3, align 8
  %6 = getelementptr inbounds nuw %"struct.open_spiel::phantom_go::PhantomGoBoard::Chain", ptr %5, i32 0, i32 3
  %7 = load i16, ptr %6, align 4
  %8 = zext i16 %7 to i32
  %9 = add nsw i32 %8, 1
  %10 = trunc i32 %9 to i16
  store i16 %10, ptr %6, align 4
  %11 = load i16, ptr %4, align 2
  %12 = zext i16 %11 to i32
  %13 = getelementptr inbounds nuw %"struct.open_spiel::phantom_go::PhantomGoBoard::Chain", ptr %5, i32 0, i32 1
  %14 = load i16, ptr %13, align 4
  %15 = zext i16 %14 to i32
  %16 = add nsw i32 %15, %12
  %17 = trunc i32 %16 to i16
  store i16 %17, ptr %13, align 4
  %18 = load i16, ptr %4, align 2
  %19 = zext i16 %18 to i32
  %20 = load i16, ptr %4, align 2
  %21 = zext i16 %20 to i32
  %22 = mul i32 %19, %21
  %23 = getelementptr inbounds nuw %"struct.open_spiel::phantom_go::PhantomGoBoard::Chain", ptr %5, i32 0, i32 0
  %24 = load i32, ptr %23, align 4
  %25 = add i32 %24, %22
  store i32 %25, ptr %23, align 4
  ret void
}